target datalayout = "e-m:e-p270:32:32-p271:32:32-p272:64:64-i64:64-i128:128-f80:128-n8:16:32:64-S128"
target triple = "x86_64-pc-linux-gnu"

%struct.rb_data_type_struct = type { ptr, %struct.anon.12, ptr, ptr, i64 }
%struct.anon.12 = type { ptr, ptr, ptr, ptr, [1 x ptr] }
%struct.weakmap = type { ptr }

@weakmap_type = internal constant %struct.rb_data_type_struct { ptr @.str.20, %struct.anon.12 { ptr @wmap_mark, ptr @wmap_free, ptr @wmap_memsize, ptr @wmap_compact, [1 x ptr] zeroinitializer }, ptr null, ptr null, i64 35 }, align 8

; Function Attrs: inlinehint nounwind sspstrong willreturn memory(none) uwtable
define internal zeroext i1 @RB_UNDEF_P(i64 noundef %0) #4 {
  %2 = alloca i64, align 8
  store i64 %0, ptr %2, align 8, !tbaa !7
  %3 = load i64, ptr %2, align 8, !tbaa !7
  %4 = icmp eq i64 %3, 36
  ret i1 %4
}

; Function Attrs: nounwind sspstrong uwtable
define internal zeroext i1 @wmap_live_p(i64 noundef %0) #0 {
  %2 = alloca i64, align 8
  store i64 %0, ptr %2, align 8, !tbaa !7
  %3 = load i64, ptr %2, align 8, !tbaa !7
  %4 = call zeroext i1 @RB_UNDEF_P(i64 noundef %3) #16
  %5 = xor i1 %4, true
  ret i1 %5
}

; Function Attrs: inlinehint nounwind sspstrong uwtable
define internal void @ruby_sized_xfree_inlined(ptr noundef %0, i64 noundef %1) #3 {
  %3 = alloca ptr, align 8
  %4 = alloca i64, align 8
  store ptr %0, ptr %3, align 8, !tbaa !33
  store i64 %1, ptr %4, align 8, !tbaa !7
  %5 = load ptr, ptr %3, align 8, !tbaa !33
  call void @ruby_xfree(ptr noundef %5)
  ret void
}

; Function Attrs: nounwind sspstrong uwtable
define internal i64 @wmap_delete(i64 noundef %0, i64 noundef %1) #0 {
  %3 = alloca i64, align 8
  %4 = alloca i64, align 8
  %5 = alloca i64, align 8
  %6 = alloca ptr, align 8
  %7 = alloca i64, align 8
  %8 = alloca i64, align 8
  %9 = alloca i64, align 8
  %10 = alloca i64, align 8
  %11 = alloca ptr, align 8
  %12 = alloca i32, align 4
  store i64 %0, ptr %4, align 8, !tbaa !7
  store i64 %1, ptr %5, align 8, !tbaa !7
  call void @llvm.lifetime.start.p0(i64 8, ptr %6) #15
  %13 = load i64, ptr %4, align 8, !tbaa !7
  %14 = call ptr @rb_check_typeddata(i64 noundef %13, ptr noundef @weakmap_type)
  store ptr %14, ptr %6, align 8, !tbaa !11
  call void @llvm.lifetime.start.p0(i64 8, ptr %7) #15
  %15 = load i64, ptr %5, align 8, !tbaa !7
  store i64 %15, ptr %7, align 8, !tbaa !7
  call void @llvm.lifetime.start.p0(i64 8, ptr %8) #15
  %16 = ptrtoint ptr %7 to i64
  store i64 %16, ptr %8, align 8, !tbaa !7
  call void @llvm.lifetime.start.p0(i64 8, ptr %9) #15
  %17 = load ptr, ptr %6, align 8, !tbaa !11
  %18 = getelementptr inbounds nuw %struct.weakmap, ptr %17, i32 0, i32 0
  %19 = load ptr, ptr %18, align 8, !tbaa !14
  %20 = call i32 @rb_st_delete(ptr noundef %19, ptr noundef %8, ptr noundef %9)
  %21 = icmp ne i32 %20, 0
  br i1 %21, label %22, label %43

22:                                               ; preds = %2
  call void @llvm.lifetime.start.p0(i64 8, ptr %10) #15
  %23 = load i64, ptr %9, align 8, !tbaa !7
  %24 = inttoptr i64 %23 to ptr
  %25 = load i64, ptr %24, align 8, !tbaa !7
  store i64 %25, ptr %10, align 8, !tbaa !7
  %26 = load i64, ptr %4, align 8, !tbaa !7
  %27 = load i64, ptr %8, align 8, !tbaa !7
  %28 = inttoptr i64 %27 to ptr
  call void @rb_gc_remove_weak(i64 noundef %26, ptr noundef %28)
  %29 = load i64, ptr %4, align 8, !tbaa !7
  %30 = load i64, ptr %9, align 8, !tbaa !7
  %31 = inttoptr i64 %30 to ptr
  call void @rb_gc_remove_weak(i64 noundef %29, ptr noundef %31)
  call void @llvm.lifetime.start.p0(i64 8, ptr %11) #15
  %32 = load i64, ptr %8, align 8, !tbaa !7
  %33 = inttoptr i64 %32 to ptr
  store ptr %33, ptr %11, align 8, !tbaa !17
  %34 = load ptr, ptr %11, align 8, !tbaa !17
  call void @ruby_sized_xfree_inlined(ptr noundef %34, i64 noundef 16)
  %35 = load i64, ptr %10, align 8, !tbaa !7
  %36 = call zeroext i1 @wmap_live_p(i64 noundef %35)
  br i1 %36, label %37, label %39

37:                                               ; preds = %22
  %38 = load i64, ptr %10, align 8, !tbaa !7
  store i64 %38, ptr %3, align 8
  store i32 1, ptr %12, align 4
  br label %40

39:                                               ; preds = %22
  store i32 0, ptr %12, align 4
  br label %40

40:                                               ; preds = %39, %37
  call void @llvm.lifetime.end.p0(i64 8, ptr %11) #15
  call void @llvm.lifetime.end.p0(i64 8, ptr %10) #15
  %41 = load i32, ptr %12, align 4
  switch i32 %41, label %50 [
    i32 0, label %42
  ]

42:                                               ; preds = %40
  br label %43

43:                                               ; preds = %42, %2
  %44 = call i32 @rb_block_given_p()
  %45 = icmp ne i32 %44, 0
  br i1 %45, label %46, label %49

46:                                               ; preds = %43
  %47 = load i64, ptr %5, align 8, !tbaa !7
  %48 = call i64 @rb_yield(i64 noundef %47)
  store i64 %48, ptr %3, align 8
  store i32 1, ptr %12, align 4
  br label %50

49:                                               ; preds = %43
  store i64 4, ptr %3, align 8
  store i32 1, ptr %12, align 4
  br label %50

50:                                               ; preds = %49, %46, %40
  call void @llvm.lifetime.end.p0(i64 8, ptr %9) #15
  call void @llvm.lifetime.end.p0(i64 8, ptr %8) #15
  call void @llvm.lifetime.end.p0(i64 8, ptr %7) #15
  call void @llvm.lifetime.end.p0(i64 8, ptr %6) #15
  %51 = load i64, ptr %3, align 8
  ret i64 %51
}