; Function Attrs: nounwind sspstrong uwtable
define internal i64 @wmap_delete(i64 noundef %0, i64 noundef %1) #0 {
  %3 = alloca i64, align 8
  %4 = alloca i64, align 8
  %5 = alloca i64, align 8
  %6 = tail call ptr @rb_check_typeddata(i64 noundef %0, ptr noundef nonnull @weakmap_type) #10
  call void @llvm.lifetime.start.p0(i64 8, ptr nonnull %3) #10
  store i64 %1, ptr %3, align 8, !tbaa !7
  call void @llvm.lifetime.start.p0(i64 8, ptr nonnull %4) #10
  %7 = ptrtoint ptr %3 to i64
  store i64 %7, ptr %4, align 8, !tbaa !7
  call void @llvm.lifetime.start.p0(i64 8, ptr nonnull %5) #10
  %8 = load ptr, ptr %6, align 8, !tbaa !17
  %9 = call i32 @rb_st_delete(ptr noundef %8, ptr noundef nonnull %4, ptr noundef nonnull %5) #10
  %.not = icmp eq i32 %9, 0
  br i1 %.not, label %20, label %10

10:                                               ; preds = %2
  %11 = load i64, ptr %5, align 8, !tbaa !7
  %12 = inttoptr i64 %11 to ptr
  %13 = load i64, ptr %12, align 8, !tbaa !7
  %14 = load i64, ptr %4, align 8, !tbaa !7
  %15 = inttoptr i64 %14 to ptr
  call void @rb_gc_remove_weak(i64 noundef %0, ptr noundef %15) #10
  %16 = load i64, ptr %5, align 8, !tbaa !7
  %17 = inttoptr i64 %16 to ptr
  call void @rb_gc_remove_weak(i64 noundef %0, ptr noundef %17) #10
  %18 = load i64, ptr %4, align 8, !tbaa !7
  %19 = inttoptr i64 %18 to ptr
  call void @ruby_xfree(ptr noundef %19) #10
  %.not12 = icmp eq i64 %13, 36
  br i1 %.not12, label %20, label %24

20:                                               ; preds = %10, %2
  %21 = call i32 @rb_block_given_p() #10
  %.not11 = icmp eq i32 %21, 0
  br i1 %.not11, label %24, label %22

22:                                               ; preds = %20
  %23 = call i64 @rb_yield(i64 noundef %1) #10
  br label %24

24:                                               ; preds = %20, %10, %22
  %.1 = phi i64 [ %23, %22 ], [ %13, %10 ], [ 4, %20 ]
  call void @llvm.lifetime.end.p0(i64 8, ptr nonnull %5) #10
  call void @llvm.lifetime.end.p0(i64 8, ptr nonnull %4) #10
  call void @llvm.lifetime.end.p0(i64 8, ptr nonnull %3) #10
  ret i64 %.1
}